target datalayout = "e-m:e-p270:32:32-p271:32:32-p272:64:64-i64:64-i128:128-f80:128-n8:16:32:64-S128"
target triple = "x86_64-pc-linux-gnu"

@.str.24 = private unnamed_addr constant [28 x i8] c"../openssl/test/test_test.c\00", align 1
@stderr = external global ptr, align 8
@.str.47 = private unnamed_addr constant [19 x i8] c"# FATAL: %s != %d\0A\00", align 1
@.str.162 = private unnamed_addr constant [39 x i8] c"TEST_size_t_eq((size_t)10, (size_t)10)\00", align 1
@.str.163 = private unnamed_addr constant [11 x i8] c"(size_t)10\00", align 1
@.str.164 = private unnamed_addr constant [39 x i8] c"TEST_size_t_eq((size_t)10, (size_t)12)\00", align 1
@.str.165 = private unnamed_addr constant [11 x i8] c"(size_t)12\00", align 1
@.str.166 = private unnamed_addr constant [39 x i8] c"TEST_size_t_ne((size_t)10, (size_t)12)\00", align 1
@.str.167 = private unnamed_addr constant [39 x i8] c"TEST_size_t_ne((size_t)24, (size_t)24)\00", align 1
@.str.168 = private unnamed_addr constant [11 x i8] c"(size_t)24\00", align 1
@.str.169 = private unnamed_addr constant [39 x i8] c"TEST_size_t_lt((size_t)30, (size_t)88)\00", align 1
@.str.170 = private unnamed_addr constant [11 x i8] c"(size_t)30\00", align 1
@.str.171 = private unnamed_addr constant [11 x i8] c"(size_t)88\00", align 1
@.str.172 = private unnamed_addr constant [39 x i8] c"TEST_size_t_lt((size_t)88, (size_t)30)\00", align 1
@.str.173 = private unnamed_addr constant [39 x i8] c"TEST_size_t_le((size_t)30, (size_t)88)\00", align 1
@.str.174 = private unnamed_addr constant [39 x i8] c"TEST_size_t_le((size_t)33, (size_t)33)\00", align 1
@.str.175 = private unnamed_addr constant [11 x i8] c"(size_t)33\00", align 1
@.str.176 = private unnamed_addr constant [39 x i8] c"TEST_size_t_le((size_t)88, (size_t)30)\00", align 1
@.str.177 = private unnamed_addr constant [39 x i8] c"TEST_size_t_gt((size_t)52, (size_t)33)\00", align 1
@.str.178 = private unnamed_addr constant [11 x i8] c"(size_t)52\00", align 1
@.str.179 = private unnamed_addr constant [39 x i8] c"TEST_size_t_gt((size_t)33, (size_t)52)\00", align 1
@.str.180 = private unnamed_addr constant [39 x i8] c"TEST_size_t_ge((size_t)52, (size_t)33)\00", align 1
@.str.181 = private unnamed_addr constant [39 x i8] c"TEST_size_t_ge((size_t)38, (size_t)38)\00", align 1
@.str.182 = private unnamed_addr constant [11 x i8] c"(size_t)38\00", align 1
@.str.183 = private unnamed_addr constant [39 x i8] c"TEST_size_t_ge((size_t)33, (size_t)52)\00", align 1

; Function Attrs: nounwind uwtable
define internal i32 @test_case(i32 noundef %0, ptr noundef %1, i32 noundef %2) #0 {
  %4 = alloca i32, align 4
  %5 = alloca i32, align 4
  %6 = alloca ptr, align 8
  %7 = alloca i32, align 4
  store i32 %0, ptr %5, align 4, !tbaa !4
  store ptr %1, ptr %6, align 8, !tbaa !9
  store i32 %2, ptr %7, align 4, !tbaa !4
  %8 = load i32, ptr %7, align 4, !tbaa !4
  %9 = load i32, ptr %5, align 4, !tbaa !4
  %10 = icmp ne i32 %8, %9
  br i1 %10, label %11, label %16

11:                                               ; preds = %3
  %12 = load ptr, ptr @stderr, align 8, !tbaa !16
  %13 = load ptr, ptr %6, align 8, !tbaa !9
  %14 = load i32, ptr %5, align 4, !tbaa !4
  %15 = call i32 (ptr, ptr, ...) @fprintf(ptr noundef %12, ptr noundef @.str.47, ptr noundef %13, i32 noundef %14) #7
  store i32 0, ptr %4, align 4
  br label %17

16:                                               ; preds = %3
  store i32 1, ptr %4, align 4
  br label %17

17:                                               ; preds = %16, %11
  %18 = load i32, ptr %4, align 4
  ret i32 %18
}

; Function Attrs: nounwind uwtable
define internal i32 @test_size_t() #0 {
  %1 = alloca i32, align 4
  %2 = call i32 @test_size_t_eq(ptr noundef @.str.24, i32 noundef 173, ptr noundef @.str.163, ptr noundef @.str.163, i64 noundef 10, i64 noundef 10)
  %3 = call i32 @test_case(i32 noundef 1, ptr noundef @.str.162, i32 noundef %2)
  %4 = icmp ne i32 %3, 0
  br i1 %4, label %5, label %57

5:                                                ; preds = %0
  %6 = call i32 @test_size_t_eq(ptr noundef @.str.24, i32 noundef 174, ptr noundef @.str.163, ptr noundef @.str.165, i64 noundef 10, i64 noundef 12)
  %7 = call i32 @test_case(i32 noundef 0, ptr noundef @.str.164, i32 noundef %6)
  %8 = icmp ne i32 %7, 0
  br i1 %8, label %9, label %57

9:                                                ; preds = %5
  %10 = call i32 @test_size_t_ne(ptr noundef @.str.24, i32 noundef 175, ptr noundef @.str.163, ptr noundef @.str.165, i64 noundef 10, i64 noundef 12)
  %11 = call i32 @test_case(i32 noundef 1, ptr noundef @.str.166, i32 noundef %10)
  %12 = icmp ne i32 %11, 0
  br i1 %12, label %13, label %57

13:                                               ; preds = %9
  %14 = call i32 @test_size_t_ne(ptr noundef @.str.24, i32 noundef 176, ptr noundef @.str.168, ptr noundef @.str.168, i64 noundef 24, i64 noundef 24)
  %15 = call i32 @test_case(i32 noundef 0, ptr noundef @.str.167, i32 noundef %14)
  %16 = icmp ne i32 %15, 0
  br i1 %16, label %17, label %57

17:                                               ; preds = %13
  %18 = call i32 @test_size_t_lt(ptr noundef @.str.24, i32 noundef 177, ptr noundef @.str.170, ptr noundef @.str.171, i64 noundef 30, i64 noundef 88)
  %19 = call i32 @test_case(i32 noundef 1, ptr noundef @.str.169, i32 noundef %18)
  %20 = icmp ne i32 %19, 0
  br i1 %20, label %21, label %57

21:                                               ; preds = %17
  %22 = call i32 @test_size_t_lt(ptr noundef @.str.24, i32 noundef 178, ptr noundef @.str.171, ptr noundef @.str.170, i64 noundef 88, i64 noundef 30)
  %23 = call i32 @test_case(i32 noundef 0, ptr noundef @.str.172, i32 noundef %22)
  %24 = icmp ne i32 %23, 0
  br i1 %24, label %25, label %57

25:                                               ; preds = %21
  %26 = call i32 @test_size_t_le(ptr noundef @.str.24, i32 noundef 179, ptr noundef @.str.170, ptr noundef @.str.171, i64 noundef 30, i64 noundef 88)
  %27 = call i32 @test_case(i32 noundef 1, ptr noundef @.str.173, i32 noundef %26)
  %28 = icmp ne i32 %27, 0
  br i1 %28, label %29, label %57

29:                                               ; preds = %25
  %30 = call i32 @test_size_t_le(ptr noundef @.str.24, i32 noundef 180, ptr noundef @.str.175, ptr noundef @.str.175, i64 noundef 33, i64 noundef 33)
  %31 = call i32 @test_case(i32 noundef 1, ptr noundef @.str.174, i32 noundef %30)
  %32 = icmp ne i32 %31, 0
  br i1 %32, label %33, label %57

33:                                               ; preds = %29
  %34 = call i32 @test_size_t_le(ptr noundef @.str.24, i32 noundef 181, ptr noundef @.str.171, ptr noundef @.str.170, i64 noundef 88, i64 noundef 30)
  %35 = call i32 @test_case(i32 noundef 0, ptr noundef @.str.176, i32 noundef %34)
  %36 = icmp ne i32 %35, 0
  br i1 %36, label %37, label %57

37:                                               ; preds = %33
  %38 = call i32 @test_size_t_gt(ptr noundef @.str.24, i32 noundef 182, ptr noundef @.str.178, ptr noundef @.str.175, i64 noundef 52, i64 noundef 33)
  %39 = call i32 @test_case(i32 noundef 1, ptr noundef @.str.177, i32 noundef %38)
  %40 = icmp ne i32 %39, 0
  br i1 %40, label %41, label %57

41:                                               ; preds = %37
  %42 = call i32 @test_size_t_gt(ptr noundef @.str.24, i32 noundef 183, ptr noundef @.str.175, ptr noundef @.str.178, i64 noundef 33, i64 noundef 52)
  %43 = call i32 @test_case(i32 noundef 0, ptr noundef @.str.179, i32 noundef %42)
  %44 = icmp ne i32 %43, 0
  br i1 %44, label %45, label %57

45:                                               ; preds = %41
  %46 = call i32 @test_size_t_ge(ptr noundef @.str.24, i32 noundef 184, ptr noundef @.str.178, ptr noundef @.str.175, i64 noundef 52, i64 noundef 33)
  %47 = call i32 @test_case(i32 noundef 1, ptr noundef @.str.180, i32 noundef %46)
  %48 = icmp ne i32 %47, 0
  br i1 %48, label %49, label %57

49:                                               ; preds = %45
  %50 = call i32 @test_size_t_ge(ptr noundef @.str.24, i32 noundef 185, ptr noundef @.str.182, ptr noundef @.str.182, i64 noundef 38, i64 noundef 38)
  %51 = call i32 @test_case(i32 noundef 1, ptr noundef @.str.181, i32 noundef %50)
  %52 = icmp ne i32 %51, 0
  br i1 %52, label %53, label %57

53:                                               ; preds = %49
  %54 = call i32 @test_size_t_ge(ptr noundef @.str.24, i32 noundef 186, ptr noundef @.str.175, ptr noundef @.str.178, i64 noundef 33, i64 noundef 52)
  %55 = call i32 @test_case(i32 noundef 0, ptr noundef @.str.183, i32 noundef %54)
  %56 = icmp ne i32 %55, 0
  br i1 %56, label %58, label %57

57:                                               ; preds = %53, %49, %45, %41, %37, %33, %29, %25, %21, %17, %13, %9, %5, %0
  br label %59

58:                                               ; preds = %53
  store i32 1, ptr %1, align 4
  br label %60

59:                                               ; preds = %57
  store i32 0, ptr %1, align 4
  br label %60

60:                                               ; preds = %59, %58
  %61 = load i32, ptr %1, align 4
  ret i32 %61
}